Certificate:
    Data:
        Version: 3 (0x2)
        Serial Number: 1 (0x1)
        Signature Algorithm: sha256WithRSAEncryption
        Issuer: CN=devcert
        Validity
            Not Before: Apr 27 09:07:25 2020 GMT
            Not After : Jul 31 09:07:25 2022 GMT
        Subject: CN=localhost
        Subject Public Key Info:
            Public Key Algorithm: rsaEncryption
                RSA Public-Key: (2048 bit)
                Modulus:
                    00:b5:bd:24:7b:ac:ab:a4:f1:91:ec:36:0b:b5:e1:
                    fa:37:22:fe:f6:19:c6:aa:a6:13:08:9d:52:65:b5:
                    02:81:2f:36:ec:e1:aa:92:5d:ab:67:e0:03:c0:3d:
                    d8:36:22:35:aa:64:46:c4:14:0e:e0:73:68:68:b4:
                    6d:2f:57:df:3c:85:96:55:c6:53:73:8b:17:78:4a:
                    27:6e:d6:a0:99:eb:21:7b:1c:83:5d:9f:07:20:58:
                    cb:97:d3:13:3d:e7:17:ff:75:4a:3b:56:4a:e6:11:
                    a6:7c:86:9e:86:82:94:70:91:ec:3c:00:28:37:70:
                    f4:b9:67:42:81:cf:cf:89:0d:f4:f7:aa:8b:39:ed:
                    35:d4:fa:ed:4a:24:39:f0:7b:4b:f8:73:c4:33:e8:
                    a6:5a:f7:4d:11:9e:1e:5c:2b:ce:f3:f5:9c:ec:e6:
                    4f:c4:d8:55:ef:71:3f:94:00:88:a6:b1:32:d7:6e:
                    96:88:6f:37:9a:62:22:0c:90:0d:f2:ba:70:5b:e4:
                    b2:b8:89:46:f9:d0:fd:8f:14:82:af:95:4d:de:03:
                    45:6b:7d:38:8c:71:63:69:a9:cb:4f:06:ce:7f:fc:
                    4c:3c:40:a2:a6:b6:81:69:b0:04:6d:dc:7f:49:69:
                    ba:8d:5b:bc:c0:c9:e9:86:bc:49:d9:5a:28:d1:8e:
                    c6:df
                Exponent: 65537 (0x10001)
        X509v3 extensions:
            X509v3 Basic Constraints: critical
                CA:FALSE
            X509v3 Subject Key Identifier: 
                CF:00:48:79:50:66:7A:DA:FE:F4:5B:90:11:5C:BA:45:A6:5D:31:38
            X509v3 Authority Key Identifier: 
                keyid:54:8E:99:86:DB:0A:69:02:A1:76:E3:40:7E:7F:E8:B0:99:7C:27:55
                DirName:/CN=devcert
                serial:27:F9:94:0F:55:0D:6F:E4:65:CE:93:CE:F4:14:34:51:FE:08:04:D7

            X509v3 Key Usage: critical
                Digital Signature, Key Encipherment
            X509v3 Extended Key Usage: 
                TLS Web Server Authentication
            X509v3 Subject Alternative Name: 
                DNS:localhost, DNS:*.localhost
    Signature Algorithm: sha256WithRSAEncryption
         a3:03:37:65:ca:e9:64:5e:80:f4:6f:35:b2:8f:d8:4d:1e:fb:
         74:26:1d:e0:91:04:a5:fe:35:7d:9e:2b:6c:b4:b2:47:2f:8e:
         b0:08:4e:c7:33:e7:6b:d9:23:80:7e:c2:27:1e:94:35:5f:bd:
         5d:7b:e8:47:f6:18:ce:00:cf:b4:7a:1a:09:ca:f7:fe:88:54:
         e6:3d:e6:fe:8a:68:23:52:3f:c8:d4:3f:0d:41:24:ad:fe:79:
         cb:f3:ee:d8:79:f8:44:7a:a6:21:ab:4c:86:2c:ca:c3:08:10:
         81:33:51:2f:9d:fc:88:0a:69:8d:78:ae:b4:ea:74:a5:ac:03:
         f7:56:f5:d8:94:b1:0c:8f:a1:e9:5a:21:f5:b7:87:33:b9:e9:
         5a:3f:44:dc:5b:be:bf:26:33:b8:5a:09:de:5e:e4:ff:ec:5d:
         4f:bd:3d:fe:ae:6f:df:60:0c:33:64:82:28:2a:20:ba:85:45:
         97:81:ec:0d:05:0d:1e:57:4c:ad:e3:bb:84:6a:80:22:e5:50:
         ea:82:54:0b:be:b9:4b:45:33:8f:33:a8:25:43:a2:f4:36:91:
         63:b7:fb:fb:c8:56:f8:f5:08:bb:ce:20:22:3c:3f:c0:a8:52:
         26:b5:9d:1b:ba:6f:3b:b2:d4:35:f3:ed:6f:16:ea:a2:d6:58:
         64:65:6b:e8
-----BEGIN CERTIFICATE-----
MIIDaTCCAlGgAwIBAgIBATANBgkqhkiG9w0BAQsFADASMRAwDgYDVQQDDAdkZXZj
ZXJ0MB4XDTIwMDQyNzA5MDcyNVoXDTIyMDczMTA5MDcyNVowFDESMBAGA1UEAwwJ
bG9jYWxob3N0MIIBIjANBgkqhkiG9w0BAQEFAAOCAQ8AMIIBCgKCAQEAtb0ke6yr
pPGR7DYLteH6NyL+9hnGqqYTCJ1SZbUCgS827OGqkl2rZ+ADwD3YNiI1qmRGxBQO
4HNoaLRtL1ffPIWWVcZTc4sXeEonbtagmeshexyDXZ8HIFjLl9MTPecX/3VKO1ZK
5hGmfIaehoKUcJHsPAAoN3D0uWdCgc/PiQ3096qLOe011PrtSiQ58HtL+HPEM+im
WvdNEZ4eXCvO8/Wc7OZPxNhV73E/lACIprEy126WiG83mmIiDJAN8rpwW+SyuIlG
+dD9jxSCr5VN3gNFa304jHFjaanLTwbOf/xMPECipraBabAEbdx/SWm6jVu8wMnp
hrxJ2Voo0Y7G3wIDAQABo4HHMIHEMAwGA1UdEwEB/wQCMAAwHQYDVR0OBBYEFM8A
SHlQZnra/vRbkBFcukWmXTE4ME0GA1UdIwRGMESAFFSOmYbbCmkCoXbjQH5/6LCZ
fCdVoRakFDASMRAwDgYDVQQDDAdkZXZjZXJ0ghQn+ZQPVQ1v5GXOk870FDRR/ggE
1zAOBgNVHQ8BAf8EBAMCBaAwEwYDVR0lBAwwCgYIKwYBBQUHAwEwIQYDVR0RBBow
GIIJbG9jYWxob3N0ggsqLmxvY2FsaG9zdDANBgkqhkiG9w0BAQsFAAOCAQEAowM3
ZcrpZF6A9G81so/YTR77dCYd4JEEpf41fZ4rbLSyRy+OsAhOxzPna9kjgH7CJx6U
NV+9XXvoR/YYzgDPtHoaCcr3/ohU5j3m/opoI1I/yNQ/DUEkrf55y/Pu2Hn4RHqm
IatMhizKwwgQgTNRL538iAppjXiutOp0pawD91b12JSxDI+h6Voh9beHM7npWj9E
3Fu+vyYzuFoJ3l7k/+xdT709/q5v32AMM2SCKCoguoVFl4HsDQUNHldMreO7hGqA
IuVQ6oJUC765S0UzjzOoJUOi9DaRY7f7+8hW+PUIu84gIjw/wKhSJrWdG7pvO7LU
NfPtbxbqotZYZGVr6A==
-----END CERTIFICATE-----
